target datalayout = "e-m:e-p270:32:32-p271:32:32-p272:64:64-i64:64-i128:128-f80:128-n8:16:32:64-S128"
target triple = "x86_64-pc-linux-gnu"

%struct.FT_ListRec_ = type { ptr, ptr }
%struct.FT_FaceRec_ = type { i64, i64, i64, i64, i64, ptr, ptr, i32, ptr, i32, ptr, %struct.FT_Generic_, %struct.FT_BBox_, i16, i16, i16, i16, i16, i16, i16, i16, ptr, ptr, ptr, ptr, ptr, ptr, %struct.FT_ListRec_, %struct.FT_Generic_, ptr, ptr }
%struct.FT_BBox_ = type { i64, i64, i64, i64 }
%struct.FT_Generic_ = type { ptr, ptr }
%struct.CID_FaceRec_ = type { %struct.FT_FaceRec_, ptr, ptr, %struct.CID_FaceInfoRec_, %struct.PS_FontExtraRec_, ptr, ptr, ptr, ptr }
%struct.CID_FaceInfoRec_ = type { ptr, i64, i32, ptr, ptr, i32, %struct.PS_FontInfoRec_, %struct.FT_BBox_, i64, i32, [16 x i64], i64, i32, i32, i64, i32, ptr, i64 }
%struct.PS_FontInfoRec_ = type { ptr, ptr, ptr, ptr, ptr, i64, i8, i16, i16 }
%struct.PS_FontExtraRec_ = type { i16 }
%struct.CID_SubrsRec_ = type { i32, ptr }

; Function Attrs: nounwind uwtable
define internal void @cid_face_done(ptr noundef %0) #0 {
  %2 = alloca ptr, align 8
  %3 = alloca ptr, align 8
  %4 = alloca ptr, align 8
  %5 = alloca ptr, align 8
  %6 = alloca ptr, align 8
  %7 = alloca i32, align 4
  %8 = alloca ptr, align 8
  store ptr %0, ptr %2, align 8
  %9 = load ptr, ptr %2, align 8
  store ptr %9, ptr %3, align 8
  %10 = load ptr, ptr %3, align 8
  %11 = icmp ne ptr %10, null
  br i1 %11, label %13, label %12

12:                                               ; preds = %1
  br label %171

13:                                               ; preds = %1
  %14 = load ptr, ptr %3, align 8
  %15 = getelementptr inbounds %struct.CID_FaceRec_, ptr %14, i32 0, i32 3
  store ptr %15, ptr %5, align 8
  %16 = load ptr, ptr %5, align 8
  %17 = getelementptr inbounds %struct.CID_FaceInfoRec_, ptr %16, i32 0, i32 6
  store ptr %17, ptr %6, align 8
  %18 = load ptr, ptr %2, align 8
  %19 = getelementptr inbounds %struct.FT_FaceRec_, ptr %18, i32 0, i32 25
  %20 = load ptr, ptr %19, align 8
  store ptr %20, ptr %4, align 8
  %21 = load ptr, ptr %3, align 8
  %22 = getelementptr inbounds %struct.CID_FaceRec_, ptr %21, i32 0, i32 5
  %23 = load ptr, ptr %22, align 8
  %24 = icmp ne ptr %23, null
  br i1 %24, label %25, label %77

25:                                               ; preds = %13
  store i32 0, ptr %7, align 4
  br label %26

26:                                               ; preds = %65, %25
  %27 = load i32, ptr %7, align 4
  %28 = load ptr, ptr %5, align 8
  %29 = getelementptr inbounds %struct.CID_FaceInfoRec_, ptr %28, i32 0, i32 15
  %30 = load i32, ptr %29, align 8
  %31 = icmp ult i32 %27, %30
  br i1 %31, label %32, label %68

32:                                               ; preds = %26
  %33 = load ptr, ptr %3, align 8
  %34 = getelementptr inbounds %struct.CID_FaceRec_, ptr %33, i32 0, i32 5
  %35 = load ptr, ptr %34, align 8
  %36 = load i32, ptr %7, align 4
  %37 = zext i32 %36 to i64
  %38 = getelementptr inbounds %struct.CID_SubrsRec_, ptr %35, i64 %37
  store ptr %38, ptr %8, align 8
  %39 = load ptr, ptr %8, align 8
  %40 = getelementptr inbounds %struct.CID_SubrsRec_, ptr %39, i32 0, i32 1
  %41 = load ptr, ptr %40, align 8
  %42 = icmp ne ptr %41, null
  br i1 %42, label %43, label %64

43:                                               ; preds = %32
  br label %44

44:                                               ; preds = %43
  %45 = load ptr, ptr %4, align 8
  %46 = load ptr, ptr %8, align 8
  %47 = getelementptr inbounds %struct.CID_SubrsRec_, ptr %46, i32 0, i32 1
  %48 = load ptr, ptr %47, align 8
  %49 = getelementptr inbounds ptr, ptr %48, i64 0
  %50 = load ptr, ptr %49, align 8
  call void @ft_mem_free(ptr noundef %45, ptr noundef %50)
  %51 = load ptr, ptr %8, align 8
  %52 = getelementptr inbounds %struct.CID_SubrsRec_, ptr %51, i32 0, i32 1
  %53 = load ptr, ptr %52, align 8
  %54 = getelementptr inbounds ptr, ptr %53, i64 0
  store ptr null, ptr %54, align 8
  br label %55

55:                                               ; preds = %44
  br label %56

56:                                               ; preds = %55
  %57 = load ptr, ptr %4, align 8
  %58 = load ptr, ptr %8, align 8
  %59 = getelementptr inbounds %struct.CID_SubrsRec_, ptr %58, i32 0, i32 1
  %60 = load ptr, ptr %59, align 8
  call void @ft_mem_free(ptr noundef %57, ptr noundef %60)
  %61 = load ptr, ptr %8, align 8
  %62 = getelementptr inbounds %struct.CID_SubrsRec_, ptr %61, i32 0, i32 1
  store ptr null, ptr %62, align 8
  br label %63

63:                                               ; preds = %56
  br label %64

64:                                               ; preds = %63, %32
  br label %65

65:                                               ; preds = %64
  %66 = load i32, ptr %7, align 4
  %67 = add i32 %66, 1
  store i32 %67, ptr %7, align 4
  br label %26, !llvm.loop !6

68:                                               ; preds = %26
  br label %69

69:                                               ; preds = %68
  %70 = load ptr, ptr %4, align 8
  %71 = load ptr, ptr %3, align 8
  %72 = getelementptr inbounds %struct.CID_FaceRec_, ptr %71, i32 0, i32 5
  %73 = load ptr, ptr %72, align 8
  call void @ft_mem_free(ptr noundef %70, ptr noundef %73)
  %74 = load ptr, ptr %3, align 8
  %75 = getelementptr inbounds %struct.CID_FaceRec_, ptr %74, i32 0, i32 5
  store ptr null, ptr %75, align 8
  br label %76

76:                                               ; preds = %69
  br label %77

77:                                               ; preds = %76, %13
  br label %78

78:                                               ; preds = %77
  %79 = load ptr, ptr %4, align 8
  %80 = load ptr, ptr %6, align 8
  %81 = getelementptr inbounds %struct.PS_FontInfoRec_, ptr %80, i32 0, i32 0
  %82 = load ptr, ptr %81, align 8
  call void @ft_mem_free(ptr noundef %79, ptr noundef %82)
  %83 = load ptr, ptr %6, align 8
  %84 = getelementptr inbounds %struct.PS_FontInfoRec_, ptr %83, i32 0, i32 0
  store ptr null, ptr %84, align 8
  br label %85

85:                                               ; preds = %78
  br label %86

86:                                               ; preds = %85
  %87 = load ptr, ptr %4, align 8
  %88 = load ptr, ptr %6, align 8
  %89 = getelementptr inbounds %struct.PS_FontInfoRec_, ptr %88, i32 0, i32 1
  %90 = load ptr, ptr %89, align 8
  call void @ft_mem_free(ptr noundef %87, ptr noundef %90)
  %91 = load ptr, ptr %6, align 8
  %92 = getelementptr inbounds %struct.PS_FontInfoRec_, ptr %91, i32 0, i32 1
  store ptr null, ptr %92, align 8
  br label %93

93:                                               ; preds = %86
  br label %94

94:                                               ; preds = %93
  %95 = load ptr, ptr %4, align 8
  %96 = load ptr, ptr %6, align 8
  %97 = getelementptr inbounds %struct.PS_FontInfoRec_, ptr %96, i32 0, i32 2
  %98 = load ptr, ptr %97, align 8
  call void @ft_mem_free(ptr noundef %95, ptr noundef %98)
  %99 = load ptr, ptr %6, align 8
  %100 = getelementptr inbounds %struct.PS_FontInfoRec_, ptr %99, i32 0, i32 2
  store ptr null, ptr %100, align 8
  br label %101

101:                                              ; preds = %94
  br label %102

102:                                              ; preds = %101
  %103 = load ptr, ptr %4, align 8
  %104 = load ptr, ptr %6, align 8
  %105 = getelementptr inbounds %struct.PS_FontInfoRec_, ptr %104, i32 0, i32 3
  %106 = load ptr, ptr %105, align 8
  call void @ft_mem_free(ptr noundef %103, ptr noundef %106)
  %107 = load ptr, ptr %6, align 8
  %108 = getelementptr inbounds %struct.PS_FontInfoRec_, ptr %107, i32 0, i32 3
  store ptr null, ptr %108, align 8
  br label %109

109:                                              ; preds = %102
  br label %110

110:                                              ; preds = %109
  %111 = load ptr, ptr %4, align 8
  %112 = load ptr, ptr %6, align 8
  %113 = getelementptr inbounds %struct.PS_FontInfoRec_, ptr %112, i32 0, i32 4
  %114 = load ptr, ptr %113, align 8
  call void @ft_mem_free(ptr noundef %111, ptr noundef %114)
  %115 = load ptr, ptr %6, align 8
  %116 = getelementptr inbounds %struct.PS_FontInfoRec_, ptr %115, i32 0, i32 4
  store ptr null, ptr %116, align 8
  br label %117

117:                                              ; preds = %110
  br label %118

118:                                              ; preds = %117
  %119 = load ptr, ptr %4, align 8
  %120 = load ptr, ptr %5, align 8
  %121 = getelementptr inbounds %struct.CID_FaceInfoRec_, ptr %120, i32 0, i32 16
  %122 = load ptr, ptr %121, align 8
  call void @ft_mem_free(ptr noundef %119, ptr noundef %122)
  %123 = load ptr, ptr %5, align 8
  %124 = getelementptr inbounds %struct.CID_FaceInfoRec_, ptr %123, i32 0, i32 16
  store ptr null, ptr %124, align 8
  br label %125

125:                                              ; preds = %118
  %126 = load ptr, ptr %5, align 8
  %127 = getelementptr inbounds %struct.CID_FaceInfoRec_, ptr %126, i32 0, i32 15
  store i32 0, ptr %127, align 8
  br label %128

128:                                              ; preds = %125
  %129 = load ptr, ptr %4, align 8
  %130 = load ptr, ptr %5, align 8
  %131 = getelementptr inbounds %struct.CID_FaceInfoRec_, ptr %130, i32 0, i32 0
  %132 = load ptr, ptr %131, align 8
  call void @ft_mem_free(ptr noundef %129, ptr noundef %132)
  %133 = load ptr, ptr %5, align 8
  %134 = getelementptr inbounds %struct.CID_FaceInfoRec_, ptr %133, i32 0, i32 0
  store ptr null, ptr %134, align 8
  br label %135

135:                                              ; preds = %128
  br label %136

136:                                              ; preds = %135
  %137 = load ptr, ptr %4, align 8
  %138 = load ptr, ptr %5, align 8
  %139 = getelementptr inbounds %struct.CID_FaceInfoRec_, ptr %138, i32 0, i32 3
  %140 = load ptr, ptr %139, align 8
  call void @ft_mem_free(ptr noundef %137, ptr noundef %140)
  %141 = load ptr, ptr %5, align 8
  %142 = getelementptr inbounds %struct.CID_FaceInfoRec_, ptr %141, i32 0, i32 3
  store ptr null, ptr %142, align 8
  br label %143

143:                                              ; preds = %136
  br label %144

144:                                              ; preds = %143
  %145 = load ptr, ptr %4, align 8
  %146 = load ptr, ptr %5, align 8
  %147 = getelementptr inbounds %struct.CID_FaceInfoRec_, ptr %146, i32 0, i32 4
  %148 = load ptr, ptr %147, align 8
  call void @ft_mem_free(ptr noundef %145, ptr noundef %148)
  %149 = load ptr, ptr %5, align 8
  %150 = getelementptr inbounds %struct.CID_FaceInfoRec_, ptr %149, i32 0, i32 4
  store ptr null, ptr %150, align 8
  br label %151

151:                                              ; preds = %144
  %152 = load ptr, ptr %2, align 8
  %153 = getelementptr inbounds %struct.FT_FaceRec_, ptr %152, i32 0, i32 5
  store ptr null, ptr %153, align 8
  %154 = load ptr, ptr %2, align 8
  %155 = getelementptr inbounds %struct.FT_FaceRec_, ptr %154, i32 0, i32 6
  store ptr null, ptr %155, align 8
  br label %156

156:                                              ; preds = %151
  %157 = load ptr, ptr %4, align 8
  %158 = load ptr, ptr %3, align 8
  %159 = getelementptr inbounds %struct.CID_FaceRec_, ptr %158, i32 0, i32 7
  %160 = load ptr, ptr %159, align 8
  call void @ft_mem_free(ptr noundef %157, ptr noundef %160)
  %161 = load ptr, ptr %3, align 8
  %162 = getelementptr inbounds %struct.CID_FaceRec_, ptr %161, i32 0, i32 7
  store ptr null, ptr %162, align 8
  br label %163

163:                                              ; preds = %156
  br label %164

164:                                              ; preds = %163
  %165 = load ptr, ptr %4, align 8
  %166 = load ptr, ptr %3, align 8
  %167 = getelementptr inbounds %struct.CID_FaceRec_, ptr %166, i32 0, i32 8
  %168 = load ptr, ptr %167, align 8
  call void @ft_mem_free(ptr noundef %165, ptr noundef %168)
  %169 = load ptr, ptr %3, align 8
  %170 = getelementptr inbounds %struct.CID_FaceRec_, ptr %169, i32 0, i32 8
  store ptr null, ptr %170, align 8
  br label %171

171:                                              ; preds = %164, %12
  ret void
}