; Function Attrs: nounwind uwtable
define internal void @cid_face_done(ptr noundef %0) #2 {
  %.not = icmp eq ptr %0, null
  br i1 %.not, label %47, label %2

2:                                                ; preds = %1
  %3 = getelementptr inbounds nuw i8, ptr %0, i64 264
  %4 = getelementptr inbounds nuw i8, ptr %0, i64 312
  %5 = getelementptr inbounds nuw i8, ptr %0, i64 184
  %6 = load ptr, ptr %5, align 8
  %7 = getelementptr inbounds nuw i8, ptr %0, i64 600
  %8 = load ptr, ptr %7, align 8
  %.not58 = icmp eq ptr %8, null
  br i1 %.not58, label %24, label %.preheader

.preheader:                                       ; preds = %2
  %9 = getelementptr inbounds nuw i8, ptr %0, i64 568
  %10 = load i32, ptr %9, align 8
  %.not61 = icmp eq i32 %10, 0
  br i1 %.not61, label %._crit_edge, label %.lr.ph

.lr.ph:                                           ; preds = %.preheader, %19
  %11 = phi i32 [ %20, %19 ], [ %10, %.preheader ]
  %indvars.iv = phi i64 [ %indvars.iv.next, %19 ], [ 0, %.preheader ]
  %12 = load ptr, ptr %7, align 8
  %13 = getelementptr inbounds nuw %struct.CID_SubrsRec_, ptr %12, i64 %indvars.iv, i32 1
  %14 = load ptr, ptr %13, align 8
  %.not59 = icmp eq ptr %14, null
  br i1 %.not59, label %19, label %15

15:                                               ; preds = %.lr.ph
  %16 = load ptr, ptr %14, align 8
  tail call void @ft_mem_free(ptr noundef %6, ptr noundef %16) #13
  %17 = load ptr, ptr %13, align 8
  store ptr null, ptr %17, align 8
  %18 = load ptr, ptr %13, align 8
  tail call void @ft_mem_free(ptr noundef %6, ptr noundef %18) #13
  store ptr null, ptr %13, align 8
  %.pre = load i32, ptr %9, align 8
  br label %19

19:                                               ; preds = %.lr.ph, %15
  %20 = phi i32 [ %11, %.lr.ph ], [ %.pre, %15 ]
  %indvars.iv.next = add nuw nsw i64 %indvars.iv, 1
  %21 = zext i32 %20 to i64
  %22 = icmp samesign ult i64 %indvars.iv.next, %21
  br i1 %22, label %.lr.ph, label %._crit_edge.loopexit, !llvm.loop !11

._crit_edge.loopexit:                             ; preds = %19
  %.pre63 = load ptr, ptr %7, align 8
  br label %._crit_edge

._crit_edge:                                      ; preds = %._crit_edge.loopexit, %.preheader
  %23 = phi ptr [ %.pre63, %._crit_edge.loopexit ], [ %8, %.preheader ]
  tail call void @ft_mem_free(ptr noundef %6, ptr noundef %23) #13
  store ptr null, ptr %7, align 8
  br label %24

24:                                               ; preds = %2, %._crit_edge
  %25 = load ptr, ptr %4, align 8
  tail call void @ft_mem_free(ptr noundef %6, ptr noundef %25) #13
  store ptr null, ptr %4, align 8
  %26 = getelementptr inbounds nuw i8, ptr %0, i64 320
  %27 = load ptr, ptr %26, align 8
  tail call void @ft_mem_free(ptr noundef %6, ptr noundef %27) #13
  store ptr null, ptr %26, align 8
  %28 = getelementptr inbounds nuw i8, ptr %0, i64 328
  %29 = load ptr, ptr %28, align 8
  tail call void @ft_mem_free(ptr noundef %6, ptr noundef %29) #13
  store ptr null, ptr %28, align 8
  %30 = getelementptr inbounds nuw i8, ptr %0, i64 336
  %31 = load ptr, ptr %30, align 8
  tail call void @ft_mem_free(ptr noundef %6, ptr noundef %31) #13
  store ptr null, ptr %30, align 8
  %32 = getelementptr inbounds nuw i8, ptr %0, i64 344
  %33 = load ptr, ptr %32, align 8
  tail call void @ft_mem_free(ptr noundef %6, ptr noundef %33) #13
  store ptr null, ptr %32, align 8
  %34 = getelementptr inbounds nuw i8, ptr %0, i64 576
  %35 = load ptr, ptr %34, align 8
  tail call void @ft_mem_free(ptr noundef %6, ptr noundef %35) #13
  store ptr null, ptr %34, align 8
  %36 = getelementptr inbounds nuw i8, ptr %0, i64 568
  store i32 0, ptr %36, align 8
  %37 = load ptr, ptr %3, align 8
  tail call void @ft_mem_free(ptr noundef %6, ptr noundef %37) #13
  store ptr null, ptr %3, align 8
  %38 = getelementptr inbounds nuw i8, ptr %0, i64 288
  %39 = load ptr, ptr %38, align 8
  tail call void @ft_mem_free(ptr noundef %6, ptr noundef %39) #13
  store ptr null, ptr %38, align 8
  %40 = getelementptr inbounds nuw i8, ptr %0, i64 296
  %41 = load ptr, ptr %40, align 8
  tail call void @ft_mem_free(ptr noundef %6, ptr noundef %41) #13
  store ptr null, ptr %40, align 8
  %42 = getelementptr inbounds nuw i8, ptr %0, i64 40
  %43 = getelementptr inbounds nuw i8, ptr %0, i64 616
  tail call void @llvm.memset.p0.i64(ptr noundef nonnull align 8 dereferenceable(16) %42, i8 0, i64 16, i1 false)
  %44 = load ptr, ptr %43, align 8
  tail call void @ft_mem_free(ptr noundef %6, ptr noundef %44) #13
  store ptr null, ptr %43, align 8
  %45 = getelementptr inbounds nuw i8, ptr %0, i64 624
  %46 = load ptr, ptr %45, align 8
  tail call void @ft_mem_free(ptr noundef %6, ptr noundef %46) #13
  store ptr null, ptr %45, align 8
  br label %47

47:                                               ; preds = %1, %24
  ret void
}